Certificate:
    Data:
        Version: 3 (0x2)
        Serial Number: 2 (0x2)
    Signature Algorithm: sha256WithRSAEncryption
        Issuer: C=FR, ST=Radius, L=Somewhere, O=Example Inc./emailAddress=admin@example.org, CN=Example Certificate Authority
        Validity
            Not Before: Mar 11 16:22:51 2019 GMT
            Not After : Feb 15 16:22:51 2119 GMT
        Subject: C=FR, ST=Radius, O=Example Inc., CN=Example user/emailAddress=user@example.org
        Subject Public Key Info:
            Public Key Algorithm: rsaEncryption
                Public-Key: (2048 bit)
                Modulus:
                    00:9d:5c:3a:91:ee:87:cb:bc:67:67:77:b8:38:f0:
                    aa:35:8b:fe:57:35:57:a5:39:84:61:fb:5e:5e:a3:
                    d5:3d:a5:bb:43:d3:ae:fe:0a:80:26:5c:00:ae:2b:
                    18:c2:7f:12:ce:11:62:b5:8f:aa:c8:97:14:dc:ed:
                    9c:71:79:91:e7:3a:c3:98:f7:4e:e9:1e:ed:27:a2:
                    48:f2:58:87:8e:8b:66:b6:4d:43:f8:70:9d:4e:14:
                    55:41:72:99:d8:d6:62:40:61:b4:a6:11:0c:f0:fd:
                    4b:9f:0b:2c:0d:df:8b:5f:01:61:e4:6a:1b:1b:d0:
                    d9:b3:58:27:ee:46:72:b4:ad:72:b2:4d:fc:d6:cf:
                    94:7f:e7:8f:2d:70:91:3b:01:74:40:13:6f:8c:7e:
                    7b:62:20:f6:18:70:47:35:9a:d8:88:46:2e:24:93:
                    46:d1:fa:5b:5c:79:70:28:06:10:29:ce:ac:66:ec:
                    d3:26:d3:04:b5:cc:4d:f9:df:c7:0a:67:bd:65:e2:
                    ad:42:50:2f:46:10:aa:97:ca:d2:d8:ef:ff:54:20:
                    9d:3e:85:fc:40:58:07:5d:46:10:ab:a1:bc:3a:d7:
                    5f:56:7a:c8:63:be:8f:5f:8d:31:05:0e:38:14:37:
                    44:2d:2e:22:01:25:a4:33:e7:13:29:13:09:94:9b:
                    8f:4b
                Exponent: 65537 (0x10001)
        X509v3 extensions:
            X509v3 Extended Key Usage: 
                TLS Web Client Authentication
            X509v3 CRL Distribution Points: 

                Full Name:
                  URI:http://www.example.com/example_ca.crl

    Signature Algorithm: sha256WithRSAEncryption
         00:20:84:54:ae:73:85:b0:81:4c:4b:29:aa:c4:8e:a4:7d:83:
         e3:2e:46:41:20:4c:1e:01:42:e6:73:06:a9:9c:17:90:17:c9:
         e1:2a:4f:8a:84:ea:fd:5b:04:ec:57:de:79:cf:c9:e5:67:4d:
         71:21:fe:45:98:d5:9c:9d:3f:52:36:a3:df:7b:85:cb:16:5a:
         1b:43:06:91:3d:25:82:9b:01:41:61:2b:df:ba:66:0c:8d:63:
         27:80:05:8c:d2:e0:1e:42:e7:eb:d1:d9:8d:17:50:22:5e:b6:
         90:ec:b1:e1:56:0d:ec:c8:d5:dd:28:42:21:6b:9b:e9:3e:54:
         2c:d6:38:3f:d4:4f:a9:35:08:1b:c9:0e:71:d9:3c:3d:17:65:
         2e:00:ba:6b:cb:a5:87:fc:fd:fd:7c:24:49:49:d9:f9:5b:29:
         f6:6e:65:92:2b:17:e4:9d:f9:d9:54:75:c3:44:76:e1:75:78:
         43:de:f2:76:74:6e:5a:9f:dc:7b:89:23:b2:1d:87:1d:ae:27:
         6f:84:dd:2b:12:2b:fe:4d:44:81:4c:eb:12:8f:69:59:1e:28:
         0b:48:25:22:76:2a:57:8c:70:ca:f8:f3:11:09:19:82:99:1a:
         7c:4f:e1:47:e5:0b:f7:ac:b7:65:6d:fa:a0:65:d3:e4:6d:71:
         a6:45:63:25
-----BEGIN CERTIFICATE-----
MIIDzTCCArWgAwIBAgIBAjANBgkqhkiG9w0BAQsFADCBkzELMAkGA1UEBhMCRlIx
DzANBgNVBAgMBlJhZGl1czESMBAGA1UEBwwJU29tZXdoZXJlMRUwEwYDVQQKDAxF
eGFtcGxlIEluYy4xIDAeBgkqhkiG9w0BCQEWEWFkbWluQGV4YW1wbGUub3JnMSYw
JAYDVQQDDB1FeGFtcGxlIENlcnRpZmljYXRlIEF1dGhvcml0eTAgFw0xOTAzMTEx
NjIyNTFaGA8yMTE5MDIxNTE2MjI1MVowbTELMAkGA1UEBhMCRlIxDzANBgNVBAgM
BlJhZGl1czEVMBMGA1UECgwMRXhhbXBsZSBJbmMuMRUwEwYDVQQDDAxFeGFtcGxl
IHVzZXIxHzAdBgkqhkiG9w0BCQEWEHVzZXJAZXhhbXBsZS5vcmcwggEiMA0GCSqG
SIb3DQEBAQUAA4IBDwAwggEKAoIBAQCdXDqR7ofLvGdnd7g48Ko1i/5XNVelOYRh
+15eo9U9pbtD067+CoAmXACuKxjCfxLOEWK1j6rIlxTc7ZxxeZHnOsOY907pHu0n
okjyWIeOi2a2TUP4cJ1OFFVBcpnY1mJAYbSmEQzw/UufCywN34tfAWHkahsb0Nmz
WCfuRnK0rXKyTfzWz5R/548tcJE7AXRAE2+MfntiIPYYcEc1mtiIRi4kk0bR+ltc
eXAoBhApzqxm7NMm0wS1zE3538cKZ71l4q1CUC9GEKqXytLY7/9UIJ0+hfxAWAdd
RhCrobw6119Weshjvo9fjTEFDjgUN0QtLiIBJaQz5xMpEwmUm49LAgMBAAGjTzBN
MBMGA1UdJQQMMAoGCCsGAQUFBwMCMDYGA1UdHwQvMC0wK6ApoCeGJWh0dHA6Ly93
d3cuZXhhbXBsZS5jb20vZXhhbXBsZV9jYS5jcmwwDQYJKoZIhvcNAQELBQADggEB
AAAghFSuc4WwgUxLKarEjqR9g+MuRkEgTB4BQuZzBqmcF5AXyeEqT4qE6v1bBOxX
3nnPyeVnTXEh/kWY1ZydP1I2o997hcsWWhtDBpE9JYKbAUFhK9+6ZgyNYyeABYzS
4B5C5+vR2Y0XUCJetpDsseFWDezI1d0oQiFrm+k+VCzWOD/UT6k1CBvJDnHZPD0X
ZS4AumvLpYf8/f18JElJ2flbKfZuZZIrF+Sd+dlUdcNEduF1eEPe8nZ0blqf3HuJ
I7Idhx2uJ2+E3SsSK/5NRIFM6xKPaVkeKAtIJSJ2KleMcMr48xEJGYKZGnxP4Ufl
C/est2Vt+qBl0+RtcaZFYyU=
-----END CERTIFICATE-----
