Certificate:
    Data:
        Version: 3 (0x2)
        Serial Number: 4 (0x4)
    Signature Algorithm: sha256WithRSAEncryption
        Issuer: C=FR, ST=Radius, L=Somewhere, O=Example Inc./emailAddress=admin@example.org, CN=Example Certificate Authority
        Validity
            Not Before: Mar 11 16:18:06 2019 GMT
            Not After : Feb 15 16:18:06 2119 GMT
        Subject: C=FR, ST=Radius, O=Example Inc., CN=Example user/emailAddress=user@example.org
        Subject Public Key Info:
            Public Key Algorithm: rsaEncryption
                Public-Key: (2048 bit)
                Modulus:
                    00:cc:6c:81:6f:f3:94:0d:a9:4d:45:67:6d:58:af:
                    46:7f:14:f0:d2:dc:d3:db:67:c2:47:4f:00:42:6e:
                    2a:7d:45:45:01:2d:69:20:e5:6b:d3:89:87:a5:4d:
                    c8:8f:f7:74:bd:91:07:e5:34:d4:19:23:fc:24:03:
                    e9:a1:66:5f:48:2f:92:b6:a2:d1:8e:85:92:41:ec:
                    e0:ff:54:7c:2e:22:17:2c:9b:ca:a8:b1:eb:75:a0:
                    da:0c:eb:2e:a1:fe:73:54:20:30:dc:df:e7:6b:a1:
                    c1:b7:d6:21:d2:50:65:a8:44:bd:fe:f6:d7:81:a0:
                    96:da:90:59:bb:68:1a:89:d3:90:2f:a3:fa:6c:55:
                    13:86:6d:4c:48:f1:05:01:30:c1:7a:62:99:e2:56:
                    ce:c7:0b:16:b4:40:d2:71:2a:b0:6b:c7:7b:4f:99:
                    25:1a:40:55:0c:79:4f:7a:63:73:6c:b9:b2:8b:01:
                    0e:e3:6b:70:6b:6e:ea:a3:12:43:f3:7c:f8:ea:7e:
                    17:96:f9:22:35:ea:95:da:e8:05:ff:4a:50:c3:78:
                    2b:55:a0:58:d0:8a:4e:a8:be:be:32:92:94:b5:3c:
                    d5:31:45:b1:7a:7d:6f:7d:f1:e3:41:46:99:0a:f8:
                    1b:ed:9e:62:e5:3d:7f:42:b8:4a:45:15:92:08:c4:
                    8e:e7
                Exponent: 65537 (0x10001)
        X509v3 extensions:
            X509v3 Extended Key Usage: 
                TLS Web Client Authentication
            X509v3 CRL Distribution Points: 

                Full Name:
                  URI:http://www.example.com/example_ca.crl

    Signature Algorithm: sha256WithRSAEncryption
         4d:47:9e:c1:9b:f1:e3:c6:18:ff:cd:6c:06:81:84:72:a8:59:
         c0:18:13:eb:2a:6d:98:a4:47:d2:2a:33:04:7a:60:d7:a4:24:
         d5:ac:90:15:b0:0e:5c:07:0c:6c:61:02:39:21:dc:54:96:d5:
         22:c5:62:77:43:bf:68:89:1a:6e:58:bf:2b:f6:65:47:46:0f:
         7e:96:54:6f:d6:fa:d3:2f:25:fe:86:dd:75:10:34:5f:13:45:
         c8:9b:be:73:26:e4:54:fb:e0:ec:28:bf:86:e3:00:c3:f1:32:
         9a:84:9b:f9:d0:c2:bb:27:ff:e0:01:bc:6e:61:02:a4:c4:c9:
         68:74:db:07:f5:58:65:bc:c5:d6:43:b1:5d:ce:5e:18:6c:c4:
         ed:4d:c1:76:20:9b:d1:a5:2a:ed:0d:76:21:b5:8f:b1:fa:2d:
         b9:11:62:df:3a:31:f8:04:45:e1:d5:48:d7:af:82:35:60:4c:
         ac:02:74:7a:8c:a2:7c:7c:91:e0:15:cf:7b:c9:14:b7:3a:82:
         be:83:8d:bd:3d:ed:2f:c5:6b:68:ac:88:50:5c:93:de:05:68:
         88:d6:8b:4a:7e:8f:1c:a0:81:b9:64:46:a4:b5:e5:0b:da:a5:
         97:b8:3a:c2:b6:a5:29:c9:ae:bc:1f:37:51:6a:ea:33:89:ef:
         a4:fa:e4:e7
-----BEGIN CERTIFICATE-----
MIIDzTCCArWgAwIBAgIBBDANBgkqhkiG9w0BAQsFADCBkzELMAkGA1UEBhMCRlIx
DzANBgNVBAgMBlJhZGl1czESMBAGA1UEBwwJU29tZXdoZXJlMRUwEwYDVQQKDAxF
eGFtcGxlIEluYy4xIDAeBgkqhkiG9w0BCQEWEWFkbWluQGV4YW1wbGUub3JnMSYw
JAYDVQQDDB1FeGFtcGxlIENlcnRpZmljYXRlIEF1dGhvcml0eTAgFw0xOTAzMTEx
NjE4MDZaGA8yMTE5MDIxNTE2MTgwNlowbTELMAkGA1UEBhMCRlIxDzANBgNVBAgM
BlJhZGl1czEVMBMGA1UECgwMRXhhbXBsZSBJbmMuMRUwEwYDVQQDDAxFeGFtcGxl
IHVzZXIxHzAdBgkqhkiG9w0BCQEWEHVzZXJAZXhhbXBsZS5vcmcwggEiMA0GCSqG
SIb3DQEBAQUAA4IBDwAwggEKAoIBAQDMbIFv85QNqU1FZ21Yr0Z/FPDS3NPbZ8JH
TwBCbip9RUUBLWkg5WvTiYelTciP93S9kQflNNQZI/wkA+mhZl9IL5K2otGOhZJB
7OD/VHwuIhcsm8qoset1oNoM6y6h/nNUIDDc3+drocG31iHSUGWoRL3+9teBoJba
kFm7aBqJ05Avo/psVROGbUxI8QUBMMF6YpniVs7HCxa0QNJxKrBrx3tPmSUaQFUM
eU96Y3NsubKLAQ7ja3BrbuqjEkPzfPjqfheW+SI16pXa6AX/SlDDeCtVoFjQik6o
vr4ykpS1PNUxRbF6fW998eNBRpkK+BvtnmLlPX9CuEpFFZIIxI7nAgMBAAGjTzBN
MBMGA1UdJQQMMAoGCCsGAQUFBwMCMDYGA1UdHwQvMC0wK6ApoCeGJWh0dHA6Ly93
d3cuZXhhbXBsZS5jb20vZXhhbXBsZV9jYS5jcmwwDQYJKoZIhvcNAQELBQADggEB
AE1HnsGb8ePGGP/NbAaBhHKoWcAYE+sqbZikR9IqMwR6YNekJNWskBWwDlwHDGxh
Ajkh3FSW1SLFYndDv2iJGm5Yvyv2ZUdGD36WVG/W+tMvJf6G3XUQNF8TRcibvnMm
5FT74Owov4bjAMPxMpqEm/nQwrsn/+ABvG5hAqTEyWh02wf1WGW8xdZDsV3OXhhs
xO1NwXYgm9GlKu0NdiG1j7H6LbkRYt86MfgEReHVSNevgjVgTKwCdHqMonx8keAV
z3vJFLc6gr6Djb097S/Fa2isiFBck94FaIjWi0p+jxyggblkRqS15QvapZe4OsK2
pSnJrrwfN1Fq6jOJ76T65Oc=
-----END CERTIFICATE-----
